target datalayout = "e-m:e-p270:32:32-p271:32:32-p272:64:64-i64:64-i128:128-f80:128-n8:16:32:64-S128"
target triple = "x86_64-pc-linux-gnu"

%struct.darktable_t = type { %struct.dt_codepath_t, i32, i32, ptr, ptr, ptr, ptr, ptr, ptr, ptr, ptr, ptr, ptr, ptr, ptr, ptr, ptr, ptr, ptr, ptr, ptr, ptr, ptr, ptr, ptr, ptr, ptr, ptr, ptr, ptr, [64 x %struct.dt_pthread_mutex_t], %struct.dt_pthread_mutex_t, %struct.dt_pthread_mutex_t, %struct.dt_pthread_mutex_t, %struct.dt_pthread_mutex_t, %struct.dt_pthread_mutex_t, ptr, ptr, ptr, ptr, ptr, ptr, ptr, ptr, ptr, ptr, ptr, ptr, ptr, %struct.dt_lua_state_t, ptr, double, ptr, i32, [47 x i32], i32, i32, ptr, ptr, %struct.dt_sys_resources_t, %struct.dt_backthumb_t, %struct.dt_gimp_t }
%struct.dt_codepath_t = type { i8, [3 x i8] }
%struct.dt_pthread_mutex_t = type { %union.pthread_mutex_t }
%union.pthread_mutex_t = type { %struct.__pthread_mutex_s }
%struct.__pthread_mutex_s = type { i32, i32, i32, i32, i32, i16, i16, %struct.__pthread_internal_list }
%struct.__pthread_internal_list = type { ptr, ptr }
%struct.dt_lua_state_t = type { i32 }
%struct.dt_sys_resources_t = type { i64, i64, ptr, ptr, i32 }
%struct.dt_backthumb_t = type { double, double, i32, i32, i32, i32 }
%struct.dt_gimp_t = type { i32, ptr, ptr, i32, i32 }
%struct.dt_lib_t = type { ptr, ptr, %struct.anon.17 }
%struct.anon.17 = type { %struct.anon.18, %struct.anon.19, %struct.anon.20, %struct.anon.21 }
%struct.anon.18 = type { ptr, ptr, ptr, ptr, ptr, i32, i32, i32, ptr, ptr, ptr, ptr, ptr }
%struct.anon.19 = type { ptr, ptr, i32 }
%struct.anon.20 = type { ptr }
%struct.anon.21 = type { i32 }
%struct.dt_colorpicker_sample_t = type { [2 x float], [8 x float], i32, i32, i32, i32, i32, [4 x i8], [3 x [4 x float]], [3 x [4 x float]], [3 x [4 x float]], [4 x i32], %struct._GdkRGBA, ptr, ptr, ptr, [8 x i8] }
%struct._GdkRGBA = type { double, double, double, double }
%struct.dt_colorspaces_t = type { ptr, %union.pthread_rwlock_t, ptr, ptr, i32, ptr, ptr, i32, i32, i32, i32, i32, [512 x i8], [512 x i8], [512 x i8], [512 x i8], i32, i32, i32, i32, ptr, ptr, ptr, ptr }
%union.pthread_rwlock_t = type { %struct.__pthread_rwlock_arch_t }
%struct.__pthread_rwlock_arch_t = type { i32, i32, i32, i32, i32, i32, i32, i32, i8, [7 x i8], i64, i32 }
%struct._GSList = type { ptr, ptr }

@darktable = external global %struct.darktable_t, align 8
@.str.6 = private unnamed_addr constant [1 x i8] zeroinitializer, align 1
@.str.189 = private unnamed_addr constant [10 x i8] c"denoised \00", align 1
@.str.190 = private unnamed_addr constant [23 x i8] c"pixelpipe pick samples\00", align 1
@.str.191 = private unnamed_addr constant [23 x i8] c"  %sbox %i/%i -- %i/%i\00", align 1
@.str.192 = private unnamed_addr constant [15 x i8] c"primary picker\00", align 1

; Function Attrs: nounwind uwtable
define internal void @_pixelpipe_pick_samples(ptr noundef %0, ptr noundef %1, ptr noundef %2, ptr noundef %3, ptr noundef %4) #0 {
  %6 = alloca ptr, align 8
  %7 = alloca ptr, align 8
  %8 = alloca ptr, align 8
  %9 = alloca ptr, align 8
  %10 = alloca ptr, align 8
  %11 = alloca ptr, align 8
  %12 = alloca ptr, align 8
  %13 = alloca ptr, align 8
  %14 = alloca %struct._GSList, align 8
  %15 = alloca [4 x i32], align 16
  %16 = alloca ptr, align 8
  %17 = alloca i32, align 4
  store ptr %0, ptr %6, align 8, !tbaa !192
  store ptr %1, ptr %7, align 8, !tbaa !103
  store ptr %2, ptr %8, align 8, !tbaa !136
  store ptr %3, ptr %9, align 8, !tbaa !193
  store ptr %4, ptr %10, align 8, !tbaa !87
  call void @llvm.lifetime.start.p0(i64 8, ptr %11) #17
  %18 = load ptr, ptr %6, align 8, !tbaa !192
  %19 = call ptr @dt_ioppr_get_histogram_profile_info(ptr noundef %18)
  store ptr %19, ptr %11, align 8, !tbaa !323
  call void @llvm.lifetime.start.p0(i64 8, ptr %12) #17
  %20 = load ptr, ptr %6, align 8, !tbaa !192
  %21 = load ptr, ptr getelementptr inbounds nuw (%struct.darktable_t, ptr @darktable, i32 0, i32 28), align 8, !tbaa !320
  %22 = getelementptr inbounds nuw %struct.dt_colorspaces_t, ptr %21, i32 0, i32 8
  %23 = load i32, ptr %22, align 4, !tbaa !321
  %24 = load ptr, ptr getelementptr inbounds nuw (%struct.darktable_t, ptr @darktable, i32 0, i32 28), align 8, !tbaa !320
  %25 = getelementptr inbounds nuw %struct.dt_colorspaces_t, ptr %24, i32 0, i32 12
  %26 = getelementptr inbounds [512 x i8], ptr %25, i64 0, i64 0
  %27 = call ptr @dt_ioppr_add_profile_info_to_list(ptr noundef %20, i32 noundef %23, ptr noundef %26, i32 noundef 1)
  store ptr %27, ptr %12, align 8, !tbaa !323
  call void @llvm.lifetime.start.p0(i64 8, ptr %13) #17
  %28 = load ptr, ptr getelementptr inbounds nuw (%struct.darktable_t, ptr @darktable, i32 0, i32 10), align 8, !tbaa !116
  %29 = getelementptr inbounds nuw %struct.dt_lib_t, ptr %28, i32 0, i32 2
  %30 = getelementptr inbounds nuw %struct.anon.17, ptr %29, i32 0, i32 0
  %31 = getelementptr inbounds nuw %struct.anon.18, ptr %30, i32 0, i32 3
  %32 = load ptr, ptr %31, align 8, !tbaa !319
  store ptr %32, ptr %13, align 8, !tbaa !343
  call void @llvm.lifetime.start.p0(i64 16, ptr %14) #17
  %33 = load ptr, ptr getelementptr inbounds nuw (%struct.darktable_t, ptr @darktable, i32 0, i32 10), align 8, !tbaa !116
  %34 = getelementptr inbounds nuw %struct.dt_lib_t, ptr %33, i32 0, i32 2
  %35 = getelementptr inbounds nuw %struct.anon.17, ptr %34, i32 0, i32 0
  %36 = getelementptr inbounds nuw %struct.anon.18, ptr %35, i32 0, i32 2
  %37 = load ptr, ptr %36, align 8, !tbaa !318
  %38 = icmp ne ptr %37, null
  br i1 %38, label %39, label %48

39:                                               ; preds = %5
  %40 = load ptr, ptr getelementptr inbounds nuw (%struct.darktable_t, ptr @darktable, i32 0, i32 10), align 8, !tbaa !116
  %41 = getelementptr inbounds nuw %struct.dt_lib_t, ptr %40, i32 0, i32 2
  %42 = getelementptr inbounds nuw %struct.anon.17, ptr %41, i32 0, i32 0
  %43 = getelementptr inbounds nuw %struct.anon.18, ptr %42, i32 0, i32 1
  %44 = load ptr, ptr %43, align 8, !tbaa !117
  %45 = getelementptr inbounds nuw %struct._GSList, ptr %14, i32 0, i32 0
  store ptr %44, ptr %45, align 8, !tbaa !344
  %46 = load ptr, ptr %13, align 8, !tbaa !343
  %47 = getelementptr inbounds nuw %struct._GSList, ptr %14, i32 0, i32 1
  store ptr %46, ptr %47, align 8, !tbaa !346
  store ptr %14, ptr %13, align 8, !tbaa !343
  br label %48

48:                                               ; preds = %39, %5
  br label %49

49:                                               ; preds = %146, %48
  %50 = load ptr, ptr %13, align 8, !tbaa !343
  %51 = icmp ne ptr %50, null
  br i1 %51, label %52, label %148

52:                                               ; preds = %49
  call void @llvm.lifetime.start.p0(i64 16, ptr %15) #17
  call void @llvm.lifetime.start.p0(i64 8, ptr %16) #17
  %53 = load ptr, ptr %13, align 8, !tbaa !343
  %54 = getelementptr inbounds nuw %struct._GSList, ptr %53, i32 0, i32 0
  %55 = load ptr, ptr %54, align 8, !tbaa !344
  store ptr %55, ptr %16, align 8, !tbaa !347
  %56 = load ptr, ptr %16, align 8, !tbaa !347
  %57 = getelementptr inbounds nuw %struct.dt_colorpicker_sample_t, ptr %56, i32 0, i32 5
  %58 = load i32, ptr %57, align 4, !tbaa !348
  %59 = icmp ne i32 %58, 0
  br i1 %59, label %138, label %60

60:                                               ; preds = %52
  %61 = load ptr, ptr %7, align 8, !tbaa !103
  %62 = load ptr, ptr %10, align 8, !tbaa !87
  %63 = load ptr, ptr %16, align 8, !tbaa !347
  %64 = getelementptr inbounds [4 x i32], ptr %15, i64 0, i64 0
  %65 = call i32 @dt_color_picker_box(ptr noundef %61, ptr noundef %62, ptr noundef %63, i32 noundef 0, ptr noundef %64)
  %66 = icmp ne i32 %65, 0
  br i1 %66, label %138, label %67

67:                                               ; preds = %60
  br label %68

68:                                               ; preds = %67
  %69 = load i32, ptr getelementptr inbounds nuw (%struct.darktable_t, ptr @darktable, i32 0, i32 2), align 8, !tbaa !54
  %70 = and i32 167772160, %69
  %71 = icmp ne i32 %70, 0
  br i1 %71, label %72, label %97

72:                                               ; preds = %68
  %73 = load i32, ptr getelementptr inbounds nuw (%struct.darktable_t, ptr @darktable, i32 0, i32 2), align 8, !tbaa !54
  %74 = xor i32 %73, -1
  %75 = and i32 0, %74
  %76 = icmp ne i32 %75, 0
  br i1 %76, label %97, label %77

77:                                               ; preds = %72
  %78 = load ptr, ptr %7, align 8, !tbaa !103
  %79 = load ptr, ptr %10, align 8, !tbaa !87
  %80 = load ptr, ptr getelementptr inbounds nuw (%struct.darktable_t, ptr @darktable, i32 0, i32 10), align 8, !tbaa !116
  %81 = getelementptr inbounds nuw %struct.dt_lib_t, ptr %80, i32 0, i32 2
  %82 = getelementptr inbounds nuw %struct.anon.17, ptr %81, i32 0, i32 0
  %83 = getelementptr inbounds nuw %struct.anon.18, ptr %82, i32 0, i32 1
  %84 = load ptr, ptr %83, align 8, !tbaa !117
  %85 = getelementptr inbounds nuw %struct.dt_colorpicker_sample_t, ptr %84, i32 0, i32 3
  %86 = load i32, ptr %85, align 4, !tbaa !349
  %87 = icmp ne i32 %86, 0
  %88 = select i1 %87, ptr @.str.189, ptr @.str.6
  %89 = getelementptr inbounds [4 x i32], ptr %15, i64 0, i64 0
  %90 = load i32, ptr %89, align 16, !tbaa !11
  %91 = getelementptr inbounds [4 x i32], ptr %15, i64 0, i64 1
  %92 = load i32, ptr %91, align 4, !tbaa !11
  %93 = getelementptr inbounds [4 x i32], ptr %15, i64 0, i64 2
  %94 = load i32, ptr %93, align 8, !tbaa !11
  %95 = getelementptr inbounds [4 x i32], ptr %15, i64 0, i64 3
  %96 = load i32, ptr %95, align 4, !tbaa !11
  call void (ptr, ptr, ptr, i32, ptr, ptr, ptr, ...) @dt_print_pipe_ext(ptr noundef @.str.190, ptr noundef null, ptr noundef %78, i32 noundef -2, ptr noundef %79, ptr noundef null, ptr noundef @.str.191, ptr noundef %88, i32 noundef %90, i32 noundef %92, i32 noundef %94, i32 noundef %96)
  br label %97

97:                                               ; preds = %77, %72, %68
  br label %98

98:                                               ; preds = %97
  br label %99

99:                                               ; preds = %98
  %100 = load ptr, ptr %8, align 8, !tbaa !136
  %101 = load ptr, ptr %9, align 8, !tbaa !193
  %102 = load ptr, ptr %10, align 8, !tbaa !87
  %103 = getelementptr inbounds [4 x i32], ptr %15, i64 0, i64 0
  %104 = load ptr, ptr %16, align 8, !tbaa !347
  %105 = getelementptr inbounds nuw %struct.dt_colorpicker_sample_t, ptr %104, i32 0, i32 3
  %106 = load i32, ptr %105, align 4, !tbaa !349
  %107 = load ptr, ptr %16, align 8, !tbaa !347
  %108 = getelementptr inbounds nuw %struct.dt_colorpicker_sample_t, ptr %107, i32 0, i32 8
  %109 = getelementptr inbounds [3 x [4 x float]], ptr %108, i64 0, i64 0
  %110 = load ptr, ptr %12, align 8, !tbaa !323
  call void @dt_color_picker_helper(ptr noundef %100, ptr noundef %101, ptr noundef %102, ptr noundef %103, i32 noundef %106, ptr noundef %109, i32 noundef 2, i32 noundef 2, ptr noundef %110)
  call void @llvm.lifetime.start.p0(i64 4, ptr %17) #17
  %111 = load ptr, ptr %7, align 8, !tbaa !103
  %112 = load ptr, ptr %16, align 8, !tbaa !347
  %113 = getelementptr inbounds nuw %struct.dt_colorpicker_sample_t, ptr %112, i32 0, i32 8
  %114 = getelementptr inbounds [3 x [4 x float]], ptr %113, i64 0, i64 0
  %115 = getelementptr inbounds [4 x float], ptr %114, i64 0, i64 0
  %116 = load ptr, ptr %16, align 8, !tbaa !347
  %117 = getelementptr inbounds nuw %struct.dt_colorpicker_sample_t, ptr %116, i32 0, i32 10
  %118 = getelementptr inbounds [3 x [4 x float]], ptr %117, i64 0, i64 0
  %119 = getelementptr inbounds [4 x float], ptr %118, i64 0, i64 0
  %120 = load ptr, ptr %12, align 8, !tbaa !323
  call void @dt_ioppr_transform_image_colorspace(ptr noundef %111, ptr noundef %115, ptr noundef %119, i32 noundef 3, i32 noundef 1, i32 noundef 2, i32 noundef 1, ptr noundef %17, ptr noundef %120)
  %121 = load ptr, ptr %12, align 8, !tbaa !323
  %122 = icmp ne ptr %121, null
  br i1 %122, label %123, label %137

123:                                              ; preds = %99
  %124 = load ptr, ptr %11, align 8, !tbaa !323
  %125 = icmp ne ptr %124, null
  br i1 %125, label %126, label %137

126:                                              ; preds = %123
  %127 = load ptr, ptr %16, align 8, !tbaa !347
  %128 = getelementptr inbounds nuw %struct.dt_colorpicker_sample_t, ptr %127, i32 0, i32 8
  %129 = getelementptr inbounds [3 x [4 x float]], ptr %128, i64 0, i64 0
  %130 = getelementptr inbounds [4 x float], ptr %129, i64 0, i64 0
  %131 = load ptr, ptr %16, align 8, !tbaa !347
  %132 = getelementptr inbounds nuw %struct.dt_colorpicker_sample_t, ptr %131, i32 0, i32 9
  %133 = getelementptr inbounds [3 x [4 x float]], ptr %132, i64 0, i64 0
  %134 = getelementptr inbounds [4 x float], ptr %133, i64 0, i64 0
  %135 = load ptr, ptr %12, align 8, !tbaa !323
  %136 = load ptr, ptr %11, align 8, !tbaa !323
  call void @dt_ioppr_transform_image_colorspace_rgb(ptr noundef %130, ptr noundef %134, i32 noundef 3, i32 noundef 1, ptr noundef %135, ptr noundef %136, ptr noundef @.str.192)
  br label %137

137:                                              ; preds = %126, %123, %99
  call void @llvm.lifetime.end.p0(i64 4, ptr %17) #17
  br label %138

138:                                              ; preds = %137, %60, %52
  %139 = load ptr, ptr %13, align 8, !tbaa !343
  %140 = icmp ne ptr %139, null
  br i1 %140, label %141, label %145

141:                                              ; preds = %138
  %142 = load ptr, ptr %13, align 8, !tbaa !343
  %143 = getelementptr inbounds nuw %struct._GSList, ptr %142, i32 0, i32 1
  %144 = load ptr, ptr %143, align 8, !tbaa !346
  br label %146

145:                                              ; preds = %138
  br label %146

146:                                              ; preds = %145, %141
  %147 = phi ptr [ %144, %141 ], [ null, %145 ]
  store ptr %147, ptr %13, align 8, !tbaa !343
  call void @llvm.lifetime.end.p0(i64 8, ptr %16) #17
  call void @llvm.lifetime.end.p0(i64 16, ptr %15) #17
  br label %49

148:                                              ; preds = %49
  call void @llvm.lifetime.end.p0(i64 16, ptr %14) #17
  call void @llvm.lifetime.end.p0(i64 8, ptr %13) #17
  call void @llvm.lifetime.end.p0(i64 8, ptr %12) #17
  call void @llvm.lifetime.end.p0(i64 8, ptr %11) #17
  ret void
}