; Function Attrs: nounwind uwtable
define internal fastcc void @_pixelpipe_pick_samples(ptr noundef %0, ptr noundef %1, ptr noundef %2, ptr noundef %3, ptr noundef nonnull %4) unnamed_addr #0 {
  %6 = alloca %struct._GSList, align 8
  %7 = alloca [4 x i32], align 16
  %8 = alloca i32, align 4
  %9 = tail call ptr @dt_ioppr_get_histogram_profile_info(ptr noundef %0) #27
  %10 = load ptr, ptr getelementptr inbounds nuw (i8, ptr @darktable, i64 216), align 8, !tbaa !294
  %11 = getelementptr inbounds nuw i8, ptr %10, i64 108
  %12 = load i32, ptr %11, align 4, !tbaa !295
  %13 = getelementptr inbounds nuw i8, ptr %10, i64 124
  %14 = tail call ptr @dt_ioppr_add_profile_info_to_list(ptr noundef %0, i32 noundef %12, ptr noundef nonnull %13, i32 noundef 1) #27
  %15 = load ptr, ptr getelementptr inbounds nuw (i8, ptr @darktable, i64 72), align 8, !tbaa !108
  %16 = getelementptr inbounds nuw i8, ptr %15, i64 40
  %17 = load ptr, ptr %16, align 8, !tbaa !293
  call void @llvm.lifetime.start.p0(i64 16, ptr nonnull %6) #27
  %18 = getelementptr inbounds nuw i8, ptr %15, i64 32
  %19 = load ptr, ptr %18, align 8, !tbaa !292
  %.not = icmp eq ptr %19, null
  br i1 %.not, label %23, label %.thread

.thread:                                          ; preds = %5
  %20 = getelementptr inbounds nuw i8, ptr %15, i64 24
  %21 = load ptr, ptr %20, align 8, !tbaa !109
  store ptr %21, ptr %6, align 8, !tbaa !325
  %22 = getelementptr inbounds nuw i8, ptr %6, i64 8
  store ptr %17, ptr %22, align 8, !tbaa !327
  br label %.lr.ph

23:                                               ; preds = %5
  %.not3237 = icmp eq ptr %17, null
  br i1 %.not3237, label %._crit_edge, label %.lr.ph

.lr.ph:                                           ; preds = %.thread, %23
  %.041 = phi ptr [ %6, %.thread ], [ %17, %23 ]
  %24 = getelementptr inbounds nuw i8, ptr %7, i64 4
  %25 = getelementptr inbounds nuw i8, ptr %7, i64 8
  %26 = getelementptr inbounds nuw i8, ptr %7, i64 12
  %27 = icmp ne ptr %14, null
  %28 = icmp ne ptr %9, null
  %or.cond = select i1 %27, i1 %28, i1 false
  br label %29

29:                                               ; preds = %.lr.ph, %57
  %.138 = phi ptr [ %.041, %.lr.ph ], [ %59, %57 ]
  call void @llvm.lifetime.start.p0(i64 16, ptr nonnull %7) #27
  %30 = load ptr, ptr %.138, align 8, !tbaa !325
  %31 = getelementptr inbounds nuw i8, ptr %30, i64 52
  %32 = load i32, ptr %31, align 4, !tbaa !328
  %.not33 = icmp eq i32 %32, 0
  br i1 %.not33, label %33, label %57

33:                                               ; preds = %29
  %34 = call i32 @dt_color_picker_box(ptr noundef %1, ptr noundef nonnull %4, ptr noundef nonnull %30, i32 noundef 0, ptr noundef nonnull %7) #27
  %.not34 = icmp eq i32 %34, 0
  br i1 %.not34, label %35, label %57

35:                                               ; preds = %33
  %36 = load i32, ptr getelementptr inbounds nuw (i8, ptr @darktable, i64 8), align 8, !tbaa !48
  %37 = and i32 %36, 167772160
  %.not35 = icmp eq i32 %37, 0
  br i1 %.not35, label %49, label %38

38:                                               ; preds = %35
  %39 = load ptr, ptr getelementptr inbounds nuw (i8, ptr @darktable, i64 72), align 8, !tbaa !108
  %40 = getelementptr inbounds nuw i8, ptr %39, i64 24
  %41 = load ptr, ptr %40, align 8, !tbaa !109
  %42 = getelementptr inbounds nuw i8, ptr %41, i64 44
  %43 = load i32, ptr %42, align 4, !tbaa !329
  %.not36 = icmp eq i32 %43, 0
  %44 = select i1 %.not36, ptr @.str.6, ptr @.str.189
  %45 = load i32, ptr %7, align 16, !tbaa !26
  %46 = load i32, ptr %24, align 4, !tbaa !26
  %47 = load i32, ptr %25, align 8, !tbaa !26
  %48 = load i32, ptr %26, align 4, !tbaa !26
  call void (ptr, ptr, ptr, i32, ptr, ptr, ptr, ...) @dt_print_pipe_ext(ptr noundef nonnull @.str.190, ptr noundef null, ptr noundef %1, i32 noundef -2, ptr noundef nonnull %4, ptr noundef null, ptr noundef nonnull @.str.191, ptr noundef nonnull %44, i32 noundef %45, i32 noundef %46, i32 noundef %47, i32 noundef %48)
  br label %49

49:                                               ; preds = %38, %35
  %50 = getelementptr inbounds nuw i8, ptr %30, i64 44
  %51 = load i32, ptr %50, align 4, !tbaa !329
  %52 = getelementptr inbounds nuw i8, ptr %30, i64 64
  call void @dt_color_picker_helper(ptr noundef %2, ptr noundef %3, ptr noundef nonnull %4, ptr noundef nonnull %7, i32 noundef %51, ptr noundef nonnull %52, i32 noundef 2, i32 noundef 2, ptr noundef %14) #27
  call void @llvm.lifetime.start.p0(i64 4, ptr nonnull %8) #27
  %53 = getelementptr inbounds nuw i8, ptr %30, i64 160
  call void @dt_ioppr_transform_image_colorspace(ptr noundef %1, ptr noundef nonnull %52, ptr noundef nonnull %53, i32 noundef 3, i32 noundef 1, i32 noundef 2, i32 noundef 1, ptr noundef nonnull %8, ptr noundef %14) #27
  br i1 %or.cond, label %54, label %56

54:                                               ; preds = %49
  %55 = getelementptr inbounds nuw i8, ptr %30, i64 112
  call void @dt_ioppr_transform_image_colorspace_rgb(ptr noundef nonnull %52, ptr noundef nonnull %55, i32 noundef 3, i32 noundef 1, ptr noundef nonnull %14, ptr noundef nonnull %9, ptr noundef nonnull @.str.192) #27
  br label %56

56:                                               ; preds = %54, %49
  call void @llvm.lifetime.end.p0(i64 4, ptr nonnull %8) #27
  br label %57

57:                                               ; preds = %56, %33, %29
  %58 = getelementptr inbounds nuw i8, ptr %.138, i64 8
  %59 = load ptr, ptr %58, align 8, !tbaa !327
  call void @llvm.lifetime.end.p0(i64 16, ptr nonnull %7) #27
  %.not32 = icmp eq ptr %59, null
  br i1 %.not32, label %._crit_edge, label %29

._crit_edge:                                      ; preds = %57, %23
  call void @llvm.lifetime.end.p0(i64 16, ptr nonnull %6) #27
  ret void
}